target datalayout = "e-m:e-p270:32:32-p271:32:32-p272:64:64-i64:64-i128:128-f80:128-n8:16:32:64-S128"
target triple = "x86_64-pc-linux-gnu"

%"class.icu_77::UnicodeString" = type { %"class.icu_77::Replaceable", %"union.icu_77::UnicodeString::StackBufferOrFields" }
%"class.icu_77::Replaceable" = type { %"class.icu_77::UObject" }
%"class.icu_77::UObject" = type { ptr }
%"union.icu_77::UnicodeString::StackBufferOrFields" = type { %struct.anon.0, [32 x i8] }
%struct.anon.0 = type { i16, i32, i32, ptr }
%"class.icu_77::RuleBasedNumberFormat" = type { %"class.icu_77::NumberFormat.base", ptr, ptr, i32, ptr, %"class.icu_77::Locale", ptr, ptr, ptr, ptr, i32, i8, ptr, ptr, %"class.icu_77::UnicodeString", i8, i8, i8, ptr }
%"class.icu_77::NumberFormat.base" = type <{ %"class.icu_77::Format", i8, [3 x i8], i32, i32, i32, i32, i8, i8, [4 x i16], [2 x i8], i32 }>
%"class.icu_77::Format" = type { %"class.icu_77::UObject", ptr, ptr }
%"class.icu_77::Locale" = type <{ %"class.icu_77::UObject", [12 x i8], [6 x i8], [4 x i8], [2 x i8], i32, [4 x i8], ptr, [157 x i8], [3 x i8], ptr, i8, [7 x i8] }>
%"class.icu_77::LocalPointer.6" = type { %"class.icu_77::LocalPointerBase.7" }
%"class.icu_77::LocalPointerBase.7" = type { ptr }

; Function Attrs: mustprogress nounwind uwtable
define linkonce_odr void @_ZN6icu_7716LocalPointerBaseINS_20DecimalFormatSymbolsEED2Ev(ptr noundef nonnull align 8 dereferenceable(8) %0) unnamed_addr #0 comdat align 2 {
  %2 = alloca ptr, align 8
  store ptr %0, ptr %2, align 8, !tbaa !204
  ret void
}

; Function Attrs: mustprogress nounwind uwtable
define linkonce_odr void @_ZN6icu_7716LocalPointerBaseINS_20DecimalFormatSymbolsEEC2EPS1_(ptr noundef nonnull align 8 dereferenceable(8) %0, ptr noundef %1) unnamed_addr #0 comdat align 2 {
  %3 = alloca ptr, align 8
  %4 = alloca ptr, align 8
  store ptr %0, ptr %3, align 8, !tbaa !204
  store ptr %1, ptr %4, align 8, !tbaa !203
  %5 = load ptr, ptr %3, align 8
  %6 = getelementptr inbounds nuw %"class.icu_77::LocalPointerBase.7", ptr %5, i32 0, i32 0
  %7 = load ptr, ptr %4, align 8, !tbaa !203
  store ptr %7, ptr %6, align 8, !tbaa !206
  ret void
}

; Function Attrs: mustprogress nounwind uwtable
define linkonce_odr void @_ZN6icu_7712LocalPointerINS_20DecimalFormatSymbolsEED2Ev(ptr noundef nonnull align 8 dereferenceable(8) %0) unnamed_addr #0 comdat align 2 {
  %2 = alloca ptr, align 8
  store ptr %0, ptr %2, align 8, !tbaa !201
  %3 = load ptr, ptr %2, align 8
  %4 = getelementptr inbounds nuw %"class.icu_77::LocalPointerBase.7", ptr %3, i32 0, i32 0
  %5 = load ptr, ptr %4, align 8, !tbaa !206
  %6 = icmp eq ptr %5, null
  br i1 %6, label %11, label %7

7:                                                ; preds = %1
  %8 = load ptr, ptr %5, align 8, !tbaa !10
  %9 = getelementptr inbounds ptr, ptr %8, i64 1
  %10 = load ptr, ptr %9, align 8
  call void %10(ptr noundef nonnull align 8 dereferenceable(2579) %5) #14
  br label %11

11:                                               ; preds = %7, %1
  call void @_ZN6icu_7716LocalPointerBaseINS_20DecimalFormatSymbolsEED2Ev(ptr noundef nonnull align 8 dereferenceable(8) %3) #14
  ret void
}

; Function Attrs: mustprogress nounwind uwtable
define linkonce_odr noundef ptr @_ZN6icu_7716LocalPointerBaseINS_20DecimalFormatSymbolsEE6orphanEv(ptr noundef nonnull align 8 dereferenceable(8) %0) #0 comdat align 2 {
  %2 = alloca ptr, align 8
  %3 = alloca ptr, align 8
  store ptr %0, ptr %2, align 8, !tbaa !204
  %4 = load ptr, ptr %2, align 8
  call void @llvm.lifetime.start.p0(i64 8, ptr %3) #14
  %5 = getelementptr inbounds nuw %"class.icu_77::LocalPointerBase.7", ptr %4, i32 0, i32 0
  %6 = load ptr, ptr %5, align 8, !tbaa !206
  store ptr %6, ptr %3, align 8, !tbaa !203
  %7 = getelementptr inbounds nuw %"class.icu_77::LocalPointerBase.7", ptr %4, i32 0, i32 0
  store ptr null, ptr %7, align 8, !tbaa !206
  %8 = load ptr, ptr %3, align 8, !tbaa !203
  call void @llvm.lifetime.end.p0(i64 8, ptr %3) #14
  ret ptr %8
}

; Function Attrs: inlinehint mustprogress nounwind uwtable
define internal noundef signext i8 @_ZL9U_SUCCESS10UErrorCode(i32 noundef %0) #4 {
  %2 = alloca i32, align 4
  store i32 %0, ptr %2, align 4, !tbaa !28
  %3 = load i32, ptr %2, align 4, !tbaa !28
  %4 = icmp sle i32 %3, 0
  %5 = zext i1 %4 to i8
  ret i8 %5
}

; Function Attrs: mustprogress uwtable
define linkonce_odr void @_ZN6icu_7712LocalPointerINS_20DecimalFormatSymbolsEEC2EPS1_R10UErrorCode(ptr noundef nonnull align 8 dereferenceable(8) %0, ptr noundef %1, ptr noundef nonnull align 4 dereferenceable(4) %2) unnamed_addr #2 comdat align 2 {
  %4 = alloca ptr, align 8
  %5 = alloca ptr, align 8
  %6 = alloca ptr, align 8
  store ptr %0, ptr %4, align 8, !tbaa !201
  store ptr %1, ptr %5, align 8, !tbaa !203
  store ptr %2, ptr %6, align 8, !tbaa !51
  %7 = load ptr, ptr %4, align 8
  %8 = load ptr, ptr %5, align 8, !tbaa !203
  call void @_ZN6icu_7716LocalPointerBaseINS_20DecimalFormatSymbolsEEC2EPS1_(ptr noundef nonnull align 8 dereferenceable(8) %7, ptr noundef %8)
  %9 = load ptr, ptr %5, align 8, !tbaa !203
  %10 = icmp eq ptr %9, null
  br i1 %10, label %11, label %18

11:                                               ; preds = %3
  %12 = load ptr, ptr %6, align 8, !tbaa !51
  %13 = load i32, ptr %12, align 4, !tbaa !28
  %14 = call noundef signext i8 @_ZL9U_SUCCESS10UErrorCode(i32 noundef %13)
  %15 = icmp ne i8 %14, 0
  br i1 %15, label %16, label %18

16:                                               ; preds = %11
  %17 = load ptr, ptr %6, align 8, !tbaa !51
  store i32 7, ptr %17, align 4, !tbaa !28
  br label %18

18:                                               ; preds = %16, %11, %3
  ret void
}

; Function Attrs: mustprogress uwtable
define noundef ptr @_ZN6icu_7721RuleBasedNumberFormat30initializeDecimalFormatSymbolsER10UErrorCode(ptr noundef nonnull align 8 dereferenceable(456) %0, ptr noundef nonnull align 4 dereferenceable(4) %1) #2 align 2 personality ptr @__gxx_personality_v0 {
  %3 = alloca ptr, align 8
  %4 = alloca ptr, align 8
  %5 = alloca %"class.icu_77::LocalPointer.6", align 8
  %6 = alloca ptr, align 8
  %7 = alloca i1, align 1
  %8 = alloca ptr, align 8
  %9 = alloca i32, align 4
  store ptr %0, ptr %3, align 8, !tbaa !3
  store ptr %1, ptr %4, align 8, !tbaa !51
  %10 = load ptr, ptr %3, align 8
  %11 = getelementptr inbounds nuw %"class.icu_77::RuleBasedNumberFormat", ptr %10, i32 0, i32 7
  %12 = load ptr, ptr %11, align 8, !tbaa !108
  %13 = icmp eq ptr %12, null
  br i1 %13, label %14, label %47

14:                                               ; preds = %2
  call void @llvm.lifetime.start.p0(i64 8, ptr %5) #14
  %15 = call noundef ptr @_ZN6icu_777UMemorynwEm(i64 noundef 2584) #14
  %16 = icmp eq ptr %15, null
  store i1 false, ptr %7, align 1
  br i1 %16, label %21, label %17

17:                                               ; preds = %14
  store ptr %15, ptr %6, align 8
  store i1 true, ptr %7, align 1
  %18 = getelementptr inbounds nuw %"class.icu_77::RuleBasedNumberFormat", ptr %10, i32 0, i32 5
  %19 = load ptr, ptr %4, align 8, !tbaa !51
  invoke void @_ZN6icu_7720DecimalFormatSymbolsC1ERKNS_6LocaleER10UErrorCode(ptr noundef nonnull align 8 dereferenceable(2579) %15, ptr noundef nonnull align 8 dereferenceable(217) %18, ptr noundef nonnull align 4 dereferenceable(4) %19)
          to label %20 unwind label %33

20:                                               ; preds = %17
  br label %21

21:                                               ; preds = %20, %14
  %22 = phi ptr [ %15, %20 ], [ null, %14 ]
  %23 = load ptr, ptr %4, align 8, !tbaa !51
  call void @_ZN6icu_7712LocalPointerINS_20DecimalFormatSymbolsEEC2EPS1_R10UErrorCode(ptr noundef nonnull align 8 dereferenceable(8) %5, ptr noundef %22, ptr noundef nonnull align 4 dereferenceable(4) %23)
  %24 = load ptr, ptr %4, align 8, !tbaa !51
  %25 = load i32, ptr %24, align 4, !tbaa !28
  %26 = invoke noundef signext i8 @_ZL9U_SUCCESS10UErrorCode(i32 noundef %25)
          to label %27 unwind label %41

27:                                               ; preds = %21
  %28 = icmp ne i8 %26, 0
  br i1 %28, label %29, label %45

29:                                               ; preds = %27
  %30 = invoke noundef ptr @_ZN6icu_7716LocalPointerBaseINS_20DecimalFormatSymbolsEE6orphanEv(ptr noundef nonnull align 8 dereferenceable(8) %5)
          to label %31 unwind label %41

31:                                               ; preds = %29
  %32 = getelementptr inbounds nuw %"class.icu_77::RuleBasedNumberFormat", ptr %10, i32 0, i32 7
  store ptr %30, ptr %32, align 8, !tbaa !108
  br label %45

33:                                               ; preds = %17
  %34 = landingpad { ptr, i32 }
          cleanup
  %35 = extractvalue { ptr, i32 } %34, 0
  store ptr %35, ptr %8, align 8
  %36 = extractvalue { ptr, i32 } %34, 1
  store i32 %36, ptr %9, align 4
  %37 = load i1, ptr %7, align 1
  br i1 %37, label %38, label %40

38:                                               ; preds = %33
  %39 = load ptr, ptr %6, align 8
  call void @_ZN6icu_777UMemorydlEPv(ptr noundef %39) #14
  br label %40

40:                                               ; preds = %38, %33
  br label %46

41:                                               ; preds = %29, %21
  %42 = landingpad { ptr, i32 }
          cleanup
  %43 = extractvalue { ptr, i32 } %42, 0
  store ptr %43, ptr %8, align 8
  %44 = extractvalue { ptr, i32 } %42, 1
  store i32 %44, ptr %9, align 4
  call void @_ZN6icu_7712LocalPointerINS_20DecimalFormatSymbolsEED2Ev(ptr noundef nonnull align 8 dereferenceable(8) %5) #14
  br label %46

45:                                               ; preds = %31, %27
  call void @_ZN6icu_7712LocalPointerINS_20DecimalFormatSymbolsEED2Ev(ptr noundef nonnull align 8 dereferenceable(8) %5) #14
  call void @llvm.lifetime.end.p0(i64 8, ptr %5) #14
  br label %47

46:                                               ; preds = %41, %40
  call void @llvm.lifetime.end.p0(i64 8, ptr %5) #14
  br label %50

47:                                               ; preds = %45, %2
  %48 = getelementptr inbounds nuw %"class.icu_77::RuleBasedNumberFormat", ptr %10, i32 0, i32 7
  %49 = load ptr, ptr %48, align 8, !tbaa !108
  ret ptr %49

50:                                               ; preds = %46
  %51 = load ptr, ptr %8, align 8
  %52 = load i32, ptr %9, align 4
  %53 = insertvalue { ptr, i32 } poison, ptr %51, 0
  %54 = insertvalue { ptr, i32 } %53, i32 %52, 1
  resume { ptr, i32 } %54
}