; Function Attrs: mustprogress uwtable
define noundef ptr @_ZN6icu_7721RuleBasedNumberFormat30initializeDecimalFormatSymbolsER10UErrorCode(ptr noundef nonnull align 8 dereferenceable(456) %0, ptr noundef nonnull align 4 dereferenceable(4) %1) local_unnamed_addr #3 align 2 personality ptr @__gxx_personality_v0 {
  %3 = getelementptr inbounds nuw i8, ptr %0, i64 328
  %4 = load ptr, ptr %3, align 8, !tbaa !90
  %5 = icmp eq ptr %4, null
  br i1 %5, label %6, label %_ZN6icu_7712LocalPointerINS_20DecimalFormatSymbolsEED2Ev.exit

6:                                                ; preds = %2
  %7 = tail call noundef ptr @_ZN6icu_777UMemorynwEm(i64 noundef 2584) #21
  %8 = icmp eq ptr %7, null
  br i1 %8, label %11, label %9

9:                                                ; preds = %6
  %10 = getelementptr inbounds nuw i8, ptr %0, i64 96
  invoke void @_ZN6icu_7720DecimalFormatSymbolsC1ERKNS_6LocaleER10UErrorCode(ptr noundef nonnull align 8 dereferenceable(2579) %7, ptr noundef nonnull align 8 dereferenceable(217) %10, ptr noundef nonnull align 4 dereferenceable(4) %1)
          to label %_ZN6icu_7712LocalPointerINS_20DecimalFormatSymbolsEEC2EPS1_R10UErrorCode.exit unwind label %16

11:                                               ; preds = %6
  %12 = load i32, ptr %1, align 4
  %13 = icmp sgt i32 %12, 0
  br i1 %13, label %_ZN6icu_7712LocalPointerINS_20DecimalFormatSymbolsEED2Ev.exit, label %14

14:                                               ; preds = %11
  store i32 7, ptr %1, align 4, !tbaa !19
  br label %_ZN6icu_7712LocalPointerINS_20DecimalFormatSymbolsEED2Ev.exit

_ZN6icu_7712LocalPointerINS_20DecimalFormatSymbolsEEC2EPS1_R10UErrorCode.exit: ; preds = %9
  %.pre = load i32, ptr %1, align 4, !tbaa !19
  %15 = icmp sgt i32 %.pre, 0
  br i1 %15, label %18, label %.thread9

.thread9:                                         ; preds = %_ZN6icu_7712LocalPointerINS_20DecimalFormatSymbolsEEC2EPS1_R10UErrorCode.exit
  store ptr %7, ptr %3, align 8, !tbaa !90
  br label %_ZN6icu_7712LocalPointerINS_20DecimalFormatSymbolsEED2Ev.exit

16:                                               ; preds = %9
  %17 = landingpad { ptr, i32 }
          cleanup
  tail call void @_ZN6icu_777UMemorydlEPv(ptr noundef nonnull %7) #21
  resume { ptr, i32 } %17

18:                                               ; preds = %_ZN6icu_7712LocalPointerINS_20DecimalFormatSymbolsEEC2EPS1_R10UErrorCode.exit
  %19 = load ptr, ptr %7, align 8, !tbaa !3
  %20 = getelementptr inbounds nuw i8, ptr %19, i64 8
  %21 = load ptr, ptr %20, align 8
  tail call void %21(ptr noundef nonnull align 8 dereferenceable(2579) %7) #21
  br label %_ZN6icu_7712LocalPointerINS_20DecimalFormatSymbolsEED2Ev.exit

_ZN6icu_7712LocalPointerINS_20DecimalFormatSymbolsEED2Ev.exit: ; preds = %11, %14, %18, %.thread9, %2
  %22 = load ptr, ptr %3, align 8, !tbaa !90
  ret ptr %22
}